#include <math.h>
#include <stdio.h>
#include <stdlib.h>
#include <string.h>

int f(int x)
{
 int z;
 if((x%4==0)&&(x%100!=0)||(x%400==0)) z=1;
 else z=0;
 return z;
 }
main()
{
 int year,month,day;
 scanf("%d %d %d",&year,&month,&day);
 int z,i,sum=0;
 z=f(year);
 int a[12];
 if(z==1) {int a[]={31,29,31,30,31,30,31,31,30,31,30,31};
 for(i=0;i<month-1;i++)
 {
 sum=sum+a[i];
 }}
 else {int a[]={31,28,31,30,31,30,31,31,30,31,30,31};
 for(i=0;i<month-1;i++)
 {
 sum=sum+a[i];
 }}
 sum=sum+day;
 printf("%d",sum);
 getchar();
 getchar();
 return 0;
 }
