; ModuleID = '11/803.c'
source_filename = "11/803.c"
target datalayout = "e-m:e-p270:32:32-p271:32:32-p272:64:64-i64:64-f80:128-n8:16:32:64-S128"
target triple = "x86_64-pc-linux-gnu"

@.str = private unnamed_addr constant [9 x i8] c"%d %d %d\00", align 1
@__const.main.a = private unnamed_addr constant [12 x i32] [i32 31, i32 29, i32 31, i32 30, i32 31, i32 30, i32 31, i32 31, i32 30, i32 31, i32 30, i32 31], align 16
@__const.main.a.1 = private unnamed_addr constant [12 x i32] [i32 31, i32 28, i32 31, i32 30, i32 31, i32 30, i32 31, i32 31, i32 30, i32 31, i32 30, i32 31], align 16
@.str.2 = private unnamed_addr constant [3 x i8] c"%d\00", align 1

; Function Attrs: noinline nounwind uwtable
define dso_local i32 @f(i32 %0) #0 {
  %2 = alloca i32, align 4
  %3 = alloca i32, align 4
  store i32 %0, i32* %2, align 4
  %4 = load i32, i32* %2, align 4
  %5 = srem i32 %4, 4
  %6 = icmp eq i32 %5, 0
  br i1 %6, label %7, label %11

7:                                                ; preds = %1
  %8 = load i32, i32* %2, align 4
  %9 = srem i32 %8, 100
  %10 = icmp ne i32 %9, 0
  br i1 %10, label %15, label %11

11:                                               ; preds = %7, %1
  %12 = load i32, i32* %2, align 4
  %13 = srem i32 %12, 400
  %14 = icmp eq i32 %13, 0
  br i1 %14, label %15, label %16

15:                                               ; preds = %11, %7
  store i32 1, i32* %3, align 4
  br label %17

16:                                               ; preds = %11
  store i32 0, i32* %3, align 4
  br label %17

17:                                               ; preds = %16, %15
  %18 = load i32, i32* %3, align 4
  ret i32 %18
}

; Function Attrs: noinline nounwind uwtable
define dso_local i32 @main() #0 {
  %1 = alloca i32, align 4
  %2 = alloca i32, align 4
  %3 = alloca i32, align 4
  %4 = alloca i32, align 4
  %5 = alloca i32, align 4
  %6 = alloca i32, align 4
  %7 = alloca i32, align 4
  %8 = alloca [12 x i32], align 16
  %9 = alloca [12 x i32], align 16
  %10 = alloca [12 x i32], align 16
  store i32 0, i32* %1, align 4
  %11 = call i32 (i8*, ...) @__isoc99_scanf(i8* getelementptr inbounds ([9 x i8], [9 x i8]* @.str, i64 0, i64 0), i32* %2, i32* %3, i32* %4)
  store i32 0, i32* %7, align 4
  %12 = load i32, i32* %2, align 4
  %13 = call i32 @f(i32 %12)
  store i32 %13, i32* %5, align 4
  %14 = load i32, i32* %5, align 4
  %15 = icmp eq i32 %14, 1
  br i1 %15, label %16, label %34

16:                                               ; preds = %0
  %17 = bitcast [12 x i32]* %9 to i8*
  call void @llvm.memcpy.p0i8.p0i8.i64(i8* align 16 %17, i8* align 16 bitcast ([12 x i32]* @__const.main.a to i8*), i64 48, i1 false)
  store i32 0, i32* %6, align 4
  br label %18

18:                                               ; preds = %30, %16
  %19 = load i32, i32* %6, align 4
  %20 = load i32, i32* %3, align 4
  %21 = sub nsw i32 %20, 1
  %22 = icmp slt i32 %19, %21
  br i1 %22, label %23, label %33

23:                                               ; preds = %18
  %24 = load i32, i32* %7, align 4
  %25 = load i32, i32* %6, align 4
  %26 = sext i32 %25 to i64
  %27 = getelementptr inbounds [12 x i32], [12 x i32]* %9, i64 0, i64 %26
  %28 = load i32, i32* %27, align 4
  %29 = add nsw i32 %24, %28
  store i32 %29, i32* %7, align 4
  br label %30

30:                                               ; preds = %23
  %31 = load i32, i32* %6, align 4
  %32 = add nsw i32 %31, 1
  store i32 %32, i32* %6, align 4
  br label %18

33:                                               ; preds = %18
  br label %52

34:                                               ; preds = %0
  %35 = bitcast [12 x i32]* %10 to i8*
  call void @llvm.memcpy.p0i8.p0i8.i64(i8* align 16 %35, i8* align 16 bitcast ([12 x i32]* @__const.main.a.1 to i8*), i64 48, i1 false)
  store i32 0, i32* %6, align 4
  br label %36

36:                                               ; preds = %48, %34
  %37 = load i32, i32* %6, align 4
  %38 = load i32, i32* %3, align 4
  %39 = sub nsw i32 %38, 1
  %40 = icmp slt i32 %37, %39
  br i1 %40, label %41, label %51

41:                                               ; preds = %36
  %42 = load i32, i32* %7, align 4
  %43 = load i32, i32* %6, align 4
  %44 = sext i32 %43 to i64
  %45 = getelementptr inbounds [12 x i32], [12 x i32]* %10, i64 0, i64 %44
  %46 = load i32, i32* %45, align 4
  %47 = add nsw i32 %42, %46
  store i32 %47, i32* %7, align 4
  br label %48

48:                                               ; preds = %41
  %49 = load i32, i32* %6, align 4
  %50 = add nsw i32 %49, 1
  store i32 %50, i32* %6, align 4
  br label %36

51:                                               ; preds = %36
  br label %52

52:                                               ; preds = %51, %33
  %53 = load i32, i32* %7, align 4
  %54 = load i32, i32* %4, align 4
  %55 = add nsw i32 %53, %54
  store i32 %55, i32* %7, align 4
  %56 = load i32, i32* %7, align 4
  %57 = call i32 (i8*, ...) @printf(i8* getelementptr inbounds ([3 x i8], [3 x i8]* @.str.2, i64 0, i64 0), i32 %56)
  %58 = call i32 @getchar()
  %59 = call i32 @getchar()
  ret i32 0
}

declare dso_local i32 @__isoc99_scanf(i8*, ...) #1

; Function Attrs: argmemonly nounwind willreturn
declare void @llvm.memcpy.p0i8.p0i8.i64(i8* noalias nocapture writeonly, i8* noalias nocapture readonly, i64, i1 immarg) #2

declare dso_local i32 @printf(i8*, ...) #1

declare dso_local i32 @getchar() #1


!llvm.module.flags = !{!0}
!llvm.ident = !{!1}

!0 = !{i32 1, !"wchar_size", i32 4}
!1 = !{!"clang version 10.0.0-4ubuntu1 "}
